target datalayout = "e-m:e-p270:32:32-p271:32:32-p272:64:64-i64:64-i128:128-f80:128-n8:16:32:64-S128"
target triple = "x86_64-pc-linux-gnu"

%struct.decNumber = type { i32, i32, i8, [1 x i8] }

@_ZL8d2utable = internal constant [50 x i8] c"\00\01\02\03\04\05\06\07\08\09\0A\0B\0C\0D\0E\0F\10\11\12\13\14\15\16\17\18\19\1A\1B\1C\1D\1E\1F !\22#$%&'()*+,-./01", align 16

; Function Attrs: mustprogress uwtable
define internal noundef i32 @_ZL10decComparePK9decNumberS1_h(ptr noundef %0, ptr noundef %1, i8 noundef zeroext %2) #0 {
  %4 = alloca i32, align 4
  %5 = alloca ptr, align 8
  %6 = alloca ptr, align 8
  %7 = alloca i8, align 1
  %8 = alloca i32, align 4
  %9 = alloca i32, align 4
  %10 = alloca i32, align 4
  %11 = alloca i32, align 4
  %12 = alloca ptr, align 8
  store ptr %0, ptr %5, align 8, !tbaa !3
  store ptr %1, ptr %6, align 8, !tbaa !3
  store i8 %2, ptr %7, align 1, !tbaa !13
  call void @llvm.lifetime.start.p0(i64 4, ptr %8) #8
  call void @llvm.lifetime.start.p0(i64 4, ptr %9) #8
  call void @llvm.lifetime.start.p0(i64 4, ptr %10) #8
  store i32 1, ptr %8, align 4, !tbaa !7
  %13 = load ptr, ptr %5, align 8, !tbaa !3
  %14 = getelementptr inbounds nuw %struct.decNumber, ptr %13, i32 0, i32 3
  %15 = getelementptr inbounds [1 x i8], ptr %14, i64 0, i64 0
  %16 = load i8, ptr %15, align 1, !tbaa !13
  %17 = zext i8 %16 to i32
  %18 = icmp eq i32 %17, 0
  br i1 %18, label %19, label %32

19:                                               ; preds = %3
  %20 = load ptr, ptr %5, align 8, !tbaa !3
  %21 = getelementptr inbounds nuw %struct.decNumber, ptr %20, i32 0, i32 0
  %22 = load i32, ptr %21, align 4, !tbaa !16
  %23 = icmp eq i32 %22, 1
  br i1 %23, label %24, label %32

24:                                               ; preds = %19
  %25 = load ptr, ptr %5, align 8, !tbaa !3
  %26 = getelementptr inbounds nuw %struct.decNumber, ptr %25, i32 0, i32 2
  %27 = load i8, ptr %26, align 4, !tbaa !9
  %28 = zext i8 %27 to i32
  %29 = and i32 %28, 112
  %30 = icmp eq i32 %29, 0
  br i1 %30, label %31, label %32

31:                                               ; preds = %24
  store i32 0, ptr %8, align 4, !tbaa !7
  br label %32

32:                                               ; preds = %31, %24, %19, %3
  %33 = load i8, ptr %7, align 1, !tbaa !13
  %34 = icmp ne i8 %33, 0
  br i1 %34, label %35, label %61

35:                                               ; preds = %32
  %36 = load ptr, ptr %6, align 8, !tbaa !3
  %37 = getelementptr inbounds nuw %struct.decNumber, ptr %36, i32 0, i32 3
  %38 = getelementptr inbounds [1 x i8], ptr %37, i64 0, i64 0
  %39 = load i8, ptr %38, align 1, !tbaa !13
  %40 = zext i8 %39 to i32
  %41 = icmp eq i32 %40, 0
  br i1 %41, label %42, label %56

42:                                               ; preds = %35
  %43 = load ptr, ptr %6, align 8, !tbaa !3
  %44 = getelementptr inbounds nuw %struct.decNumber, ptr %43, i32 0, i32 0
  %45 = load i32, ptr %44, align 4, !tbaa !16
  %46 = icmp eq i32 %45, 1
  br i1 %46, label %47, label %56

47:                                               ; preds = %42
  %48 = load ptr, ptr %6, align 8, !tbaa !3
  %49 = getelementptr inbounds nuw %struct.decNumber, ptr %48, i32 0, i32 2
  %50 = load i8, ptr %49, align 4, !tbaa !9
  %51 = zext i8 %50 to i32
  %52 = and i32 %51, 112
  %53 = icmp eq i32 %52, 0
  br i1 %53, label %54, label %56

54:                                               ; preds = %47
  %55 = load i32, ptr %8, align 4, !tbaa !7
  store i32 %55, ptr %4, align 4
  store i32 1, ptr %11, align 4
  br label %228

56:                                               ; preds = %47, %42, %35
  %57 = load i32, ptr %8, align 4, !tbaa !7
  %58 = icmp eq i32 %57, 0
  br i1 %58, label %59, label %60

59:                                               ; preds = %56
  store i32 -1, ptr %4, align 4
  store i32 1, ptr %11, align 4
  br label %228

60:                                               ; preds = %56
  br label %116

61:                                               ; preds = %32
  %62 = load i32, ptr %8, align 4, !tbaa !7
  %63 = icmp ne i32 %62, 0
  br i1 %63, label %64, label %72

64:                                               ; preds = %61
  %65 = load ptr, ptr %5, align 8, !tbaa !3
  %66 = getelementptr inbounds nuw %struct.decNumber, ptr %65, i32 0, i32 2
  %67 = load i8, ptr %66, align 4, !tbaa !9
  %68 = zext i8 %67 to i32
  %69 = and i32 %68, 128
  %70 = icmp ne i32 %69, 0
  br i1 %70, label %71, label %72

71:                                               ; preds = %64
  store i32 -1, ptr %8, align 4, !tbaa !7
  br label %72

72:                                               ; preds = %71, %64, %61
  store i32 1, ptr %9, align 4, !tbaa !7
  %73 = load ptr, ptr %6, align 8, !tbaa !3
  %74 = getelementptr inbounds nuw %struct.decNumber, ptr %73, i32 0, i32 3
  %75 = getelementptr inbounds [1 x i8], ptr %74, i64 0, i64 0
  %76 = load i8, ptr %75, align 1, !tbaa !13
  %77 = zext i8 %76 to i32
  %78 = icmp eq i32 %77, 0
  br i1 %78, label %79, label %92

79:                                               ; preds = %72
  %80 = load ptr, ptr %6, align 8, !tbaa !3
  %81 = getelementptr inbounds nuw %struct.decNumber, ptr %80, i32 0, i32 0
  %82 = load i32, ptr %81, align 4, !tbaa !16
  %83 = icmp eq i32 %82, 1
  br i1 %83, label %84, label %92

84:                                               ; preds = %79
  %85 = load ptr, ptr %6, align 8, !tbaa !3
  %86 = getelementptr inbounds nuw %struct.decNumber, ptr %85, i32 0, i32 2
  %87 = load i8, ptr %86, align 4, !tbaa !9
  %88 = zext i8 %87 to i32
  %89 = and i32 %88, 112
  %90 = icmp eq i32 %89, 0
  br i1 %90, label %91, label %92

91:                                               ; preds = %84
  store i32 0, ptr %9, align 4, !tbaa !7
  br label %101

92:                                               ; preds = %84, %79, %72
  %93 = load ptr, ptr %6, align 8, !tbaa !3
  %94 = getelementptr inbounds nuw %struct.decNumber, ptr %93, i32 0, i32 2
  %95 = load i8, ptr %94, align 4, !tbaa !9
  %96 = zext i8 %95 to i32
  %97 = and i32 %96, 128
  %98 = icmp ne i32 %97, 0
  br i1 %98, label %99, label %100

99:                                               ; preds = %92
  store i32 -1, ptr %9, align 4, !tbaa !7
  br label %100

100:                                              ; preds = %99, %92
  br label %101

101:                                              ; preds = %100, %91
  %102 = load i32, ptr %8, align 4, !tbaa !7
  %103 = load i32, ptr %9, align 4, !tbaa !7
  %104 = icmp sgt i32 %102, %103
  br i1 %104, label %105, label %106

105:                                              ; preds = %101
  store i32 1, ptr %4, align 4
  store i32 1, ptr %11, align 4
  br label %228

106:                                              ; preds = %101
  %107 = load i32, ptr %8, align 4, !tbaa !7
  %108 = load i32, ptr %9, align 4, !tbaa !7
  %109 = icmp slt i32 %107, %108
  br i1 %109, label %110, label %111

110:                                              ; preds = %106
  store i32 -1, ptr %4, align 4
  store i32 1, ptr %11, align 4
  br label %228

111:                                              ; preds = %106
  %112 = load i32, ptr %8, align 4, !tbaa !7
  %113 = icmp eq i32 %112, 0
  br i1 %113, label %114, label %115

114:                                              ; preds = %111
  store i32 0, ptr %4, align 4
  store i32 1, ptr %11, align 4
  br label %228

115:                                              ; preds = %111
  br label %116

116:                                              ; preds = %115, %60
  %117 = load ptr, ptr %5, align 8, !tbaa !3
  %118 = getelementptr inbounds nuw %struct.decNumber, ptr %117, i32 0, i32 2
  %119 = load i8, ptr %118, align 4, !tbaa !9
  %120 = zext i8 %119 to i32
  %121 = load ptr, ptr %6, align 8, !tbaa !3
  %122 = getelementptr inbounds nuw %struct.decNumber, ptr %121, i32 0, i32 2
  %123 = load i8, ptr %122, align 4, !tbaa !9
  %124 = zext i8 %123 to i32
  %125 = or i32 %120, %124
  %126 = and i32 %125, 64
  %127 = icmp ne i32 %126, 0
  br i1 %127, label %128, label %149

128:                                              ; preds = %116
  %129 = load ptr, ptr %6, align 8, !tbaa !3
  %130 = getelementptr inbounds nuw %struct.decNumber, ptr %129, i32 0, i32 2
  %131 = load i8, ptr %130, align 4, !tbaa !9
  %132 = zext i8 %131 to i32
  %133 = and i32 %132, 64
  %134 = icmp ne i32 %133, 0
  br i1 %134, label %135, label %147

135:                                              ; preds = %128
  %136 = load ptr, ptr %5, align 8, !tbaa !3
  %137 = getelementptr inbounds nuw %struct.decNumber, ptr %136, i32 0, i32 2
  %138 = load i8, ptr %137, align 4, !tbaa !9
  %139 = zext i8 %138 to i32
  %140 = and i32 %139, 64
  %141 = icmp ne i32 %140, 0
  br i1 %141, label %142, label %143

142:                                              ; preds = %135
  store i32 0, ptr %8, align 4, !tbaa !7
  br label %146

143:                                              ; preds = %135
  %144 = load i32, ptr %8, align 4, !tbaa !7
  %145 = sub nsw i32 0, %144
  store i32 %145, ptr %8, align 4, !tbaa !7
  br label %146

146:                                              ; preds = %143, %142
  br label %147

147:                                              ; preds = %146, %128
  %148 = load i32, ptr %8, align 4, !tbaa !7
  store i32 %148, ptr %4, align 4
  store i32 1, ptr %11, align 4
  br label %228

149:                                              ; preds = %116
  %150 = load ptr, ptr %5, align 8, !tbaa !3
  %151 = getelementptr inbounds nuw %struct.decNumber, ptr %150, i32 0, i32 1
  %152 = load i32, ptr %151, align 4, !tbaa !17
  %153 = load ptr, ptr %6, align 8, !tbaa !3
  %154 = getelementptr inbounds nuw %struct.decNumber, ptr %153, i32 0, i32 1
  %155 = load i32, ptr %154, align 4, !tbaa !17
  %156 = icmp sgt i32 %152, %155
  br i1 %156, label %157, label %163

157:                                              ; preds = %149
  call void @llvm.lifetime.start.p0(i64 8, ptr %12) #8
  %158 = load ptr, ptr %5, align 8, !tbaa !3
  store ptr %158, ptr %12, align 8, !tbaa !3
  %159 = load ptr, ptr %6, align 8, !tbaa !3
  store ptr %159, ptr %5, align 8, !tbaa !3
  %160 = load ptr, ptr %12, align 8, !tbaa !3
  store ptr %160, ptr %6, align 8, !tbaa !3
  %161 = load i32, ptr %8, align 4, !tbaa !7
  %162 = sub nsw i32 0, %161
  store i32 %162, ptr %8, align 4, !tbaa !7
  call void @llvm.lifetime.end.p0(i64 8, ptr %12) #8
  br label %163

163:                                              ; preds = %157, %149
  %164 = load ptr, ptr %5, align 8, !tbaa !3
  %165 = getelementptr inbounds nuw %struct.decNumber, ptr %164, i32 0, i32 3
  %166 = getelementptr inbounds [1 x i8], ptr %165, i64 0, i64 0
  %167 = load ptr, ptr %5, align 8, !tbaa !3
  %168 = getelementptr inbounds nuw %struct.decNumber, ptr %167, i32 0, i32 0
  %169 = load i32, ptr %168, align 4, !tbaa !16
  %170 = icmp sle i32 %169, 49
  br i1 %170, label %171, label %179

171:                                              ; preds = %163
  %172 = load ptr, ptr %5, align 8, !tbaa !3
  %173 = getelementptr inbounds nuw %struct.decNumber, ptr %172, i32 0, i32 0
  %174 = load i32, ptr %173, align 4, !tbaa !16
  %175 = sext i32 %174 to i64
  %176 = getelementptr inbounds [50 x i8], ptr @_ZL8d2utable, i64 0, i64 %175
  %177 = load i8, ptr %176, align 1, !tbaa !13
  %178 = zext i8 %177 to i32
  br label %186

179:                                              ; preds = %163
  %180 = load ptr, ptr %5, align 8, !tbaa !3
  %181 = getelementptr inbounds nuw %struct.decNumber, ptr %180, i32 0, i32 0
  %182 = load i32, ptr %181, align 4, !tbaa !16
  %183 = add nsw i32 %182, 1
  %184 = sub nsw i32 %183, 1
  %185 = sdiv i32 %184, 1
  br label %186

186:                                              ; preds = %179, %171
  %187 = phi i32 [ %178, %171 ], [ %185, %179 ]
  %188 = load ptr, ptr %6, align 8, !tbaa !3
  %189 = getelementptr inbounds nuw %struct.decNumber, ptr %188, i32 0, i32 3
  %190 = getelementptr inbounds [1 x i8], ptr %189, i64 0, i64 0
  %191 = load ptr, ptr %6, align 8, !tbaa !3
  %192 = getelementptr inbounds nuw %struct.decNumber, ptr %191, i32 0, i32 0
  %193 = load i32, ptr %192, align 4, !tbaa !16
  %194 = icmp sle i32 %193, 49
  br i1 %194, label %195, label %203

195:                                              ; preds = %186
  %196 = load ptr, ptr %6, align 8, !tbaa !3
  %197 = getelementptr inbounds nuw %struct.decNumber, ptr %196, i32 0, i32 0
  %198 = load i32, ptr %197, align 4, !tbaa !16
  %199 = sext i32 %198 to i64
  %200 = getelementptr inbounds [50 x i8], ptr @_ZL8d2utable, i64 0, i64 %199
  %201 = load i8, ptr %200, align 1, !tbaa !13
  %202 = zext i8 %201 to i32
  br label %210

203:                                              ; preds = %186
  %204 = load ptr, ptr %6, align 8, !tbaa !3
  %205 = getelementptr inbounds nuw %struct.decNumber, ptr %204, i32 0, i32 0
  %206 = load i32, ptr %205, align 4, !tbaa !16
  %207 = add nsw i32 %206, 1
  %208 = sub nsw i32 %207, 1
  %209 = sdiv i32 %208, 1
  br label %210

210:                                              ; preds = %203, %195
  %211 = phi i32 [ %202, %195 ], [ %209, %203 ]
  %212 = load ptr, ptr %6, align 8, !tbaa !3
  %213 = getelementptr inbounds nuw %struct.decNumber, ptr %212, i32 0, i32 1
  %214 = load i32, ptr %213, align 4, !tbaa !17
  %215 = load ptr, ptr %5, align 8, !tbaa !3
  %216 = getelementptr inbounds nuw %struct.decNumber, ptr %215, i32 0, i32 1
  %217 = load i32, ptr %216, align 4, !tbaa !17
  %218 = sub nsw i32 %214, %217
  %219 = call noundef i32 @_ZL14decUnitComparePKhiS0_ii(ptr noundef %166, i32 noundef %187, ptr noundef %190, i32 noundef %211, i32 noundef %218)
  store i32 %219, ptr %10, align 4, !tbaa !7
  %220 = load i32, ptr %10, align 4, !tbaa !7
  %221 = icmp ne i32 %220, -2147483648
  br i1 %221, label %222, label %226

222:                                              ; preds = %210
  %223 = load i32, ptr %8, align 4, !tbaa !7
  %224 = load i32, ptr %10, align 4, !tbaa !7
  %225 = mul nsw i32 %224, %223
  store i32 %225, ptr %10, align 4, !tbaa !7
  br label %226

226:                                              ; preds = %222, %210
  %227 = load i32, ptr %10, align 4, !tbaa !7
  store i32 %227, ptr %4, align 4
  store i32 1, ptr %11, align 4
  br label %228

228:                                              ; preds = %226, %147, %114, %110, %105, %59, %54
  call void @llvm.lifetime.end.p0(i64 4, ptr %10) #8
  call void @llvm.lifetime.end.p0(i64 4, ptr %9) #8
  call void @llvm.lifetime.end.p0(i64 4, ptr %8) #8
  %229 = load i32, ptr %4, align 4
  ret i32 %229
}